target datalayout = "e-m:e-p270:32:32-p271:32:32-p272:64:64-i64:64-i128:128-f80:128-n8:16:32:64-S128"
target triple = "x86_64-pc-linux-gnu"

%struct.Vec_Int_t_ = type { i32, i32, ptr }
%struct.Gia_Obj_t_ = type <{ i64, i32 }>
%struct.Gia_Man_t_ = type { ptr, ptr, i32, i32, i32, i32, ptr, ptr, i32, i32, i32, ptr, ptr, %struct.Vec_Int_t_, %struct.Vec_Int_t_, i32, i32, i32, %struct.Vec_Int_t_, ptr, ptr, ptr, i32, i32, i32, i32, ptr, ptr, ptr, ptr, ptr, i32, i32, ptr, i32, ptr, ptr, ptr, ptr, ptr, ptr, ptr, ptr, ptr, ptr, ptr, ptr, ptr, ptr, ptr, ptr, ptr, ptr, %struct.Vec_Int_t_, %struct.Vec_Int_t_, ptr, ptr, ptr, ptr, ptr, ptr, ptr, ptr, ptr, ptr, ptr, ptr, ptr, ptr, ptr, ptr, ptr, ptr, ptr, ptr, ptr, i32, float, float, ptr, ptr, i32, ptr, ptr, ptr, ptr, ptr, ptr, ptr, ptr, ptr, ptr, ptr, ptr, ptr, ptr, ptr, i64, i64, ptr, ptr, i32, i32, i32, i32, i32, i32, i32, i32, i32, i32, i32, i32, ptr, ptr, ptr, ptr, ptr, ptr, ptr, ptr, i32, i32, i32, ptr, i32, i32, ptr, ptr, ptr, ptr, ptr, ptr, i32, i32, ptr, %struct.Vec_Int_t_, %struct.Vec_Int_t_, %struct.Vec_Int_t_, ptr, ptr, ptr, i32, i32, i32, i32, ptr, ptr, ptr, ptr, ptr }

; Function Attrs: inlinehint nounwind uwtable
define internal i32 @Gia_ObjFaninC1(ptr noundef %0) #2 {
  %2 = alloca ptr, align 8
  store ptr %0, ptr %2, align 8, !tbaa !47
  %3 = load ptr, ptr %2, align 8, !tbaa !47
  %4 = load i64, ptr %3, align 4
  %5 = lshr i64 %4, 61
  %6 = and i64 %5, 1
  %7 = trunc i64 %6 to i32
  ret i32 %7
}

; Function Attrs: inlinehint nounwind uwtable
define internal ptr @Gia_ObjFanin1(ptr noundef %0) #2 {
  %2 = alloca ptr, align 8
  store ptr %0, ptr %2, align 8, !tbaa !47
  %3 = load ptr, ptr %2, align 8, !tbaa !47
  %4 = load ptr, ptr %2, align 8, !tbaa !47
  %5 = load i64, ptr %4, align 4
  %6 = lshr i64 %5, 32
  %7 = and i64 %6, 536870911
  %8 = trunc i64 %7 to i32
  %9 = sext i32 %8 to i64
  %10 = sub i64 0, %9
  %11 = getelementptr inbounds %struct.Gia_Obj_t_, ptr %3, i64 %10
  ret ptr %11
}

; Function Attrs: inlinehint nounwind uwtable
define internal i32 @Abc_LitNotCond(i32 noundef %0, i32 noundef %1) #2 {
  %3 = alloca i32, align 4
  %4 = alloca i32, align 4
  store i32 %0, ptr %3, align 4, !tbaa !8
  store i32 %1, ptr %4, align 4, !tbaa !8
  %5 = load i32, ptr %3, align 4, !tbaa !8
  %6 = load i32, ptr %4, align 4, !tbaa !8
  %7 = icmp sgt i32 %6, 0
  %8 = zext i1 %7 to i32
  %9 = xor i32 %5, %8
  ret i32 %9
}

; Function Attrs: inlinehint nounwind uwtable
define internal i32 @Gia_ObjFaninC0(ptr noundef %0) #2 {
  %2 = alloca ptr, align 8
  store ptr %0, ptr %2, align 8, !tbaa !47
  %3 = load ptr, ptr %2, align 8, !tbaa !47
  %4 = load i64, ptr %3, align 4
  %5 = lshr i64 %4, 29
  %6 = and i64 %5, 1
  %7 = trunc i64 %6 to i32
  ret i32 %7
}

; Function Attrs: inlinehint nounwind uwtable
define internal ptr @Gia_ObjFanin0(ptr noundef %0) #2 {
  %2 = alloca ptr, align 8
  store ptr %0, ptr %2, align 8, !tbaa !47
  %3 = load ptr, ptr %2, align 8, !tbaa !47
  %4 = load ptr, ptr %2, align 8, !tbaa !47
  %5 = load i64, ptr %4, align 4
  %6 = and i64 %5, 536870911
  %7 = trunc i64 %6 to i32
  %8 = sext i32 %7 to i64
  %9 = sub i64 0, %8
  %10 = getelementptr inbounds %struct.Gia_Obj_t_, ptr %3, i64 %9
  ret ptr %10
}

; Function Attrs: inlinehint nounwind uwtable
define internal ptr @Gia_ManCo(ptr noundef %0, i32 noundef %1) #2 {
  %3 = alloca ptr, align 8
  %4 = alloca i32, align 4
  store ptr %0, ptr %3, align 8, !tbaa !20
  store i32 %1, ptr %4, align 4, !tbaa !8
  %5 = load ptr, ptr %3, align 8, !tbaa !20
  %6 = load ptr, ptr %3, align 8, !tbaa !20
  %7 = getelementptr inbounds nuw %struct.Gia_Man_t_, ptr %6, i32 0, i32 12
  %8 = load ptr, ptr %7, align 8, !tbaa !51
  %9 = load i32, ptr %4, align 4, !tbaa !8
  %10 = call i32 @Vec_IntEntry(ptr noundef %8, i32 noundef %9)
  %11 = call ptr @Gia_ManObj(ptr noundef %5, i32 noundef %10)
  ret ptr %11
}

; Function Attrs: inlinehint nounwind uwtable
define internal i32 @Vec_IntSize(ptr noundef %0) #2 {
  %2 = alloca ptr, align 8
  store ptr %0, ptr %2, align 8, !tbaa !10
  %3 = load ptr, ptr %2, align 8, !tbaa !10
  %4 = getelementptr inbounds nuw %struct.Vec_Int_t_, ptr %3, i32 0, i32 1
  %5 = load i32, ptr %4, align 4, !tbaa !14
  ret i32 %5
}

; Function Attrs: inlinehint nounwind uwtable
define internal i32 @Gia_ObjFanin1Copy(ptr noundef %0) #2 {
  %2 = alloca ptr, align 8
  store ptr %0, ptr %2, align 8, !tbaa !47
  %3 = load ptr, ptr %2, align 8, !tbaa !47
  %4 = call ptr @Gia_ObjFanin1(ptr noundef %3)
  %5 = getelementptr inbounds nuw %struct.Gia_Obj_t_, ptr %4, i32 0, i32 1
  %6 = load i32, ptr %5, align 4, !tbaa !23
  %7 = load ptr, ptr %2, align 8, !tbaa !47
  %8 = call i32 @Gia_ObjFaninC1(ptr noundef %7)
  %9 = call i32 @Abc_LitNotCond(i32 noundef %6, i32 noundef %8)
  ret i32 %9
}

; Function Attrs: inlinehint nounwind uwtable
define internal i32 @Gia_ObjFanin0Copy(ptr noundef %0) #2 {
  %2 = alloca ptr, align 8
  store ptr %0, ptr %2, align 8, !tbaa !47
  %3 = load ptr, ptr %2, align 8, !tbaa !47
  %4 = call ptr @Gia_ObjFanin0(ptr noundef %3)
  %5 = getelementptr inbounds nuw %struct.Gia_Obj_t_, ptr %4, i32 0, i32 1
  %6 = load i32, ptr %5, align 4, !tbaa !23
  %7 = load ptr, ptr %2, align 8, !tbaa !47
  %8 = call i32 @Gia_ObjFaninC0(ptr noundef %7)
  %9 = call i32 @Abc_LitNotCond(i32 noundef %6, i32 noundef %8)
  ret i32 %9
}

; Function Attrs: inlinehint nounwind uwtable
define internal i32 @Gia_ObjIsAnd(ptr noundef %0) #2 {
  %2 = alloca ptr, align 8
  store ptr %0, ptr %2, align 8, !tbaa !47
  %3 = load ptr, ptr %2, align 8, !tbaa !47
  %4 = load i64, ptr %3, align 4
  %5 = lshr i64 %4, 31
  %6 = and i64 %5, 1
  %7 = trunc i64 %6 to i32
  %8 = icmp ne i32 %7, 0
  br i1 %8, label %15, label %9

9:                                                ; preds = %1
  %10 = load ptr, ptr %2, align 8, !tbaa !47
  %11 = load i64, ptr %10, align 4
  %12 = and i64 %11, 536870911
  %13 = trunc i64 %12 to i32
  %14 = icmp ne i32 %13, 536870911
  br label %15

15:                                               ; preds = %9, %1
  %16 = phi i1 [ false, %1 ], [ %14, %9 ]
  %17 = zext i1 %16 to i32
  ret i32 %17
}

; Function Attrs: inlinehint nounwind uwtable
define internal ptr @Gia_ManObj(ptr noundef %0, i32 noundef %1) #2 {
  %3 = alloca ptr, align 8
  %4 = alloca i32, align 4
  store ptr %0, ptr %3, align 8, !tbaa !20
  store i32 %1, ptr %4, align 4, !tbaa !8
  %5 = load ptr, ptr %3, align 8, !tbaa !20
  %6 = getelementptr inbounds nuw %struct.Gia_Man_t_, ptr %5, i32 0, i32 6
  %7 = load ptr, ptr %6, align 8, !tbaa !54
  %8 = load i32, ptr %4, align 4, !tbaa !8
  %9 = sext i32 %8 to i64
  %10 = getelementptr inbounds %struct.Gia_Obj_t_, ptr %7, i64 %9
  ret ptr %10
}

; Function Attrs: inlinehint nounwind uwtable
define internal i32 @Vec_IntEntry(ptr noundef %0, i32 noundef %1) #2 {
  %3 = alloca ptr, align 8
  %4 = alloca i32, align 4
  store ptr %0, ptr %3, align 8, !tbaa !10
  store i32 %1, ptr %4, align 4, !tbaa !8
  %5 = load ptr, ptr %3, align 8, !tbaa !10
  %6 = getelementptr inbounds nuw %struct.Vec_Int_t_, ptr %5, i32 0, i32 2
  %7 = load ptr, ptr %6, align 8, !tbaa !17
  %8 = load i32, ptr %4, align 4, !tbaa !8
  %9 = sext i32 %8 to i64
  %10 = getelementptr inbounds i32, ptr %7, i64 %9
  %11 = load i32, ptr %10, align 4, !tbaa !8
  ret i32 %11
}

; Function Attrs: inlinehint nounwind uwtable
define internal ptr @Gia_ManCi(ptr noundef %0, i32 noundef %1) #2 {
  %3 = alloca ptr, align 8
  %4 = alloca i32, align 4
  store ptr %0, ptr %3, align 8, !tbaa !20
  store i32 %1, ptr %4, align 4, !tbaa !8
  %5 = load ptr, ptr %3, align 8, !tbaa !20
  %6 = load ptr, ptr %3, align 8, !tbaa !20
  %7 = getelementptr inbounds nuw %struct.Gia_Man_t_, ptr %6, i32 0, i32 11
  %8 = load ptr, ptr %7, align 8, !tbaa !46
  %9 = load i32, ptr %4, align 4, !tbaa !8
  %10 = call i32 @Vec_IntEntry(ptr noundef %8, i32 noundef %9)
  %11 = call ptr @Gia_ManObj(ptr noundef %5, i32 noundef %10)
  ret ptr %11
}

; Function Attrs: inlinehint nounwind uwtable
define internal i32 @Gia_ManPiNum(ptr noundef %0) #2 {
  %2 = alloca ptr, align 8
  store ptr %0, ptr %2, align 8, !tbaa !20
  %3 = load ptr, ptr %2, align 8, !tbaa !20
  %4 = getelementptr inbounds nuw %struct.Gia_Man_t_, ptr %3, i32 0, i32 11
  %5 = load ptr, ptr %4, align 8, !tbaa !46
  %6 = call i32 @Vec_IntSize(ptr noundef %5)
  %7 = load ptr, ptr %2, align 8, !tbaa !20
  %8 = getelementptr inbounds nuw %struct.Gia_Man_t_, ptr %7, i32 0, i32 2
  %9 = load i32, ptr %8, align 8, !tbaa !53
  %10 = sub nsw i32 %6, %9
  ret i32 %10
}

; Function Attrs: inlinehint nounwind uwtable
define internal ptr @Gia_ManConst0(ptr noundef %0) #2 {
  %2 = alloca ptr, align 8
  store ptr %0, ptr %2, align 8, !tbaa !20
  %3 = load ptr, ptr %2, align 8, !tbaa !20
  %4 = getelementptr inbounds nuw %struct.Gia_Man_t_, ptr %3, i32 0, i32 6
  %5 = load ptr, ptr %4, align 8, !tbaa !54
  ret ptr %5
}

; Function Attrs: inlinehint nounwind uwtable
define internal ptr @Abc_UtilStrsav(ptr noundef %0) #2 {
  %2 = alloca ptr, align 8
  store ptr %0, ptr %2, align 8, !tbaa !3
  %3 = load ptr, ptr %2, align 8, !tbaa !3
  %4 = icmp ne ptr %3, null
  br i1 %4, label %5, label %13

5:                                                ; preds = %1
  %6 = load ptr, ptr %2, align 8, !tbaa !3
  %7 = call i64 @strlen(ptr noundef %6) #15
  %8 = add i64 %7, 1
  %9 = mul i64 1, %8
  %10 = call noalias ptr @malloc(i64 noundef %9) #16
  %11 = load ptr, ptr %2, align 8, !tbaa !3
  %12 = call ptr @strcpy(ptr noundef %10, ptr noundef %11) #14
  br label %14

13:                                               ; preds = %1
  br label %14

14:                                               ; preds = %13, %5
  %15 = phi ptr [ %12, %5 ], [ null, %13 ]
  ret ptr %15
}

; Function Attrs: inlinehint nounwind uwtable
define internal i32 @Gia_ManObjNum(ptr noundef %0) #2 {
  %2 = alloca ptr, align 8
  store ptr %0, ptr %2, align 8, !tbaa !20
  %3 = load ptr, ptr %2, align 8, !tbaa !20
  %4 = getelementptr inbounds nuw %struct.Gia_Man_t_, ptr %3, i32 0, i32 4
  %5 = load i32, ptr %4, align 8, !tbaa !49
  ret i32 %5
}

; Function Attrs: nounwind uwtable
define ptr @Gia_QbfCofactor(ptr noundef %0, i32 noundef %1, ptr noundef %2, ptr noundef %3) #0 {
  %5 = alloca ptr, align 8
  %6 = alloca i32, align 4
  %7 = alloca ptr, align 8
  %8 = alloca ptr, align 8
  %9 = alloca ptr, align 8
  %10 = alloca ptr, align 8
  %11 = alloca ptr, align 8
  %12 = alloca i32, align 4
  store ptr %0, ptr %5, align 8, !tbaa !20
  store i32 %1, ptr %6, align 4, !tbaa !8
  store ptr %2, ptr %7, align 8, !tbaa !10
  store ptr %3, ptr %8, align 8, !tbaa !10
  call void @llvm.lifetime.start.p0(i64 8, ptr %9) #14
  call void @llvm.lifetime.start.p0(i64 8, ptr %10) #14
  call void @llvm.lifetime.start.p0(i64 8, ptr %11) #14
  call void @llvm.lifetime.start.p0(i64 4, ptr %12) #14
  %13 = load ptr, ptr %5, align 8, !tbaa !20
  %14 = call i32 @Gia_ManObjNum(ptr noundef %13)
  %15 = call ptr @Gia_ManStart(i32 noundef %14)
  store ptr %15, ptr %9, align 8, !tbaa !20
  %16 = load ptr, ptr %5, align 8, !tbaa !20
  %17 = getelementptr inbounds nuw %struct.Gia_Man_t_, ptr %16, i32 0, i32 0
  %18 = load ptr, ptr %17, align 8, !tbaa !28
  %19 = call ptr @Abc_UtilStrsav(ptr noundef %18)
  %20 = load ptr, ptr %9, align 8, !tbaa !20
  %21 = getelementptr inbounds nuw %struct.Gia_Man_t_, ptr %20, i32 0, i32 0
  store ptr %19, ptr %21, align 8, !tbaa !28
  %22 = load ptr, ptr %9, align 8, !tbaa !20
  call void @Gia_ManHashAlloc(ptr noundef %22)
  %23 = load ptr, ptr %5, align 8, !tbaa !20
  %24 = call ptr @Gia_ManConst0(ptr noundef %23)
  %25 = getelementptr inbounds nuw %struct.Gia_Obj_t_, ptr %24, i32 0, i32 1
  store i32 0, ptr %25, align 4, !tbaa !23
  store i32 0, ptr %12, align 4, !tbaa !8
  br label %26

26:                                               ; preds = %67, %4
  %27 = load i32, ptr %12, align 4, !tbaa !8
  %28 = load ptr, ptr %5, align 8, !tbaa !20
  %29 = call i32 @Gia_ManPiNum(ptr noundef %28)
  %30 = icmp slt i32 %27, %29
  br i1 %30, label %31, label %36

31:                                               ; preds = %26
  %32 = load ptr, ptr %5, align 8, !tbaa !20
  %33 = load i32, ptr %12, align 4, !tbaa !8
  %34 = call ptr @Gia_ManCi(ptr noundef %32, i32 noundef %33)
  store ptr %34, ptr %11, align 8, !tbaa !47
  %35 = icmp ne ptr %34, null
  br label %36

36:                                               ; preds = %31, %26
  %37 = phi i1 [ false, %26 ], [ %35, %31 ]
  br i1 %37, label %38, label %70

38:                                               ; preds = %36
  %39 = load i32, ptr %12, align 4, !tbaa !8
  %40 = load i32, ptr %6, align 4, !tbaa !8
  %41 = icmp slt i32 %39, %40
  br i1 %41, label %42, label %58

42:                                               ; preds = %38
  %43 = load ptr, ptr %9, align 8, !tbaa !20
  %44 = call i32 @Gia_ManAppendCi(ptr noundef %43)
  %45 = load ptr, ptr %11, align 8, !tbaa !47
  %46 = getelementptr inbounds nuw %struct.Gia_Obj_t_, ptr %45, i32 0, i32 1
  store i32 %44, ptr %46, align 4, !tbaa !23
  %47 = load ptr, ptr %8, align 8, !tbaa !10
  %48 = load i32, ptr %12, align 4, !tbaa !8
  %49 = call i32 @Vec_IntEntry(ptr noundef %47, i32 noundef %48)
  %50 = icmp ne i32 %49, -1
  br i1 %50, label %51, label %57

51:                                               ; preds = %42
  %52 = load ptr, ptr %8, align 8, !tbaa !10
  %53 = load i32, ptr %12, align 4, !tbaa !8
  %54 = call i32 @Vec_IntEntry(ptr noundef %52, i32 noundef %53)
  %55 = load ptr, ptr %11, align 8, !tbaa !47
  %56 = getelementptr inbounds nuw %struct.Gia_Obj_t_, ptr %55, i32 0, i32 1
  store i32 %54, ptr %56, align 4, !tbaa !23
  br label %57

57:                                               ; preds = %51, %42
  br label %66

58:                                               ; preds = %38
  %59 = load ptr, ptr %7, align 8, !tbaa !10
  %60 = load i32, ptr %12, align 4, !tbaa !8
  %61 = load i32, ptr %6, align 4, !tbaa !8
  %62 = sub nsw i32 %60, %61
  %63 = call i32 @Vec_IntEntry(ptr noundef %59, i32 noundef %62)
  %64 = load ptr, ptr %11, align 8, !tbaa !47
  %65 = getelementptr inbounds nuw %struct.Gia_Obj_t_, ptr %64, i32 0, i32 1
  store i32 %63, ptr %65, align 4, !tbaa !23
  br label %66

66:                                               ; preds = %58, %57
  br label %67

67:                                               ; preds = %66
  %68 = load i32, ptr %12, align 4, !tbaa !8
  %69 = add nsw i32 %68, 1
  store i32 %69, ptr %12, align 4, !tbaa !8
  br label %26, !llvm.loop !127

70:                                               ; preds = %36
  store i32 0, ptr %12, align 4, !tbaa !8
  br label %71

71:                                               ; preds = %99, %70
  %72 = load i32, ptr %12, align 4, !tbaa !8
  %73 = load ptr, ptr %5, align 8, !tbaa !20
  %74 = getelementptr inbounds nuw %struct.Gia_Man_t_, ptr %73, i32 0, i32 4
  %75 = load i32, ptr %74, align 8, !tbaa !49
  %76 = icmp slt i32 %72, %75
  br i1 %76, label %77, label %82

77:                                               ; preds = %71
  %78 = load ptr, ptr %5, align 8, !tbaa !20
  %79 = load i32, ptr %12, align 4, !tbaa !8
  %80 = call ptr @Gia_ManObj(ptr noundef %78, i32 noundef %79)
  store ptr %80, ptr %11, align 8, !tbaa !47
  %81 = icmp ne ptr %80, null
  br label %82

82:                                               ; preds = %77, %71
  %83 = phi i1 [ false, %71 ], [ %81, %77 ]
  br i1 %83, label %84, label %102

84:                                               ; preds = %82
  %85 = load ptr, ptr %11, align 8, !tbaa !47
  %86 = call i32 @Gia_ObjIsAnd(ptr noundef %85)
  %87 = icmp ne i32 %86, 0
  br i1 %87, label %89, label %88

88:                                               ; preds = %84
  br label %98

89:                                               ; preds = %84
  %90 = load ptr, ptr %9, align 8, !tbaa !20
  %91 = load ptr, ptr %11, align 8, !tbaa !47
  %92 = call i32 @Gia_ObjFanin0Copy(ptr noundef %91)
  %93 = load ptr, ptr %11, align 8, !tbaa !47
  %94 = call i32 @Gia_ObjFanin1Copy(ptr noundef %93)
  %95 = call i32 @Gia_ManHashAnd(ptr noundef %90, i32 noundef %92, i32 noundef %94)
  %96 = load ptr, ptr %11, align 8, !tbaa !47
  %97 = getelementptr inbounds nuw %struct.Gia_Obj_t_, ptr %96, i32 0, i32 1
  store i32 %95, ptr %97, align 4, !tbaa !23
  br label %98

98:                                               ; preds = %89, %88
  br label %99

99:                                               ; preds = %98
  %100 = load i32, ptr %12, align 4, !tbaa !8
  %101 = add nsw i32 %100, 1
  store i32 %101, ptr %12, align 4, !tbaa !8
  br label %71, !llvm.loop !128

102:                                              ; preds = %82
  store i32 0, ptr %12, align 4, !tbaa !8
  br label %103

103:                                              ; preds = %124, %102
  %104 = load i32, ptr %12, align 4, !tbaa !8
  %105 = load ptr, ptr %5, align 8, !tbaa !20
  %106 = getelementptr inbounds nuw %struct.Gia_Man_t_, ptr %105, i32 0, i32 12
  %107 = load ptr, ptr %106, align 8, !tbaa !51
  %108 = call i32 @Vec_IntSize(ptr noundef %107)
  %109 = icmp slt i32 %104, %108
  br i1 %109, label %110, label %115

110:                                              ; preds = %103
  %111 = load ptr, ptr %5, align 8, !tbaa !20
  %112 = load i32, ptr %12, align 4, !tbaa !8
  %113 = call ptr @Gia_ManCo(ptr noundef %111, i32 noundef %112)
  store ptr %113, ptr %11, align 8, !tbaa !47
  %114 = icmp ne ptr %113, null
  br label %115

115:                                              ; preds = %110, %103
  %116 = phi i1 [ false, %103 ], [ %114, %110 ]
  br i1 %116, label %117, label %127

117:                                              ; preds = %115
  %118 = load ptr, ptr %9, align 8, !tbaa !20
  %119 = load ptr, ptr %11, align 8, !tbaa !47
  %120 = call i32 @Gia_ObjFanin0Copy(ptr noundef %119)
  %121 = call i32 @Gia_ManAppendCo(ptr noundef %118, i32 noundef %120)
  %122 = load ptr, ptr %11, align 8, !tbaa !47
  %123 = getelementptr inbounds nuw %struct.Gia_Obj_t_, ptr %122, i32 0, i32 1
  store i32 %121, ptr %123, align 4, !tbaa !23
  br label %124

124:                                              ; preds = %117
  %125 = load i32, ptr %12, align 4, !tbaa !8
  %126 = add nsw i32 %125, 1
  store i32 %126, ptr %12, align 4, !tbaa !8
  br label %103, !llvm.loop !129

127:                                              ; preds = %115
  %128 = load ptr, ptr %9, align 8, !tbaa !20
  store ptr %128, ptr %10, align 8, !tbaa !20
  %129 = call ptr @Gia_ManCleanup(ptr noundef %128)
  store ptr %129, ptr %9, align 8, !tbaa !20
  %130 = load ptr, ptr %10, align 8, !tbaa !20
  call void @Gia_ManStop(ptr noundef %130)
  %131 = load ptr, ptr %9, align 8, !tbaa !20
  call void @llvm.lifetime.end.p0(i64 4, ptr %12) #14
  call void @llvm.lifetime.end.p0(i64 8, ptr %11) #14
  call void @llvm.lifetime.end.p0(i64 8, ptr %10) #14
  call void @llvm.lifetime.end.p0(i64 8, ptr %9) #14
  ret ptr %131
}