; Function Attrs: nounwind uwtable
define ptr @Gia_QbfCofactor(ptr noundef readonly captures(none) %0, i32 noundef %1, ptr noundef readonly captures(none) %2, ptr noundef readonly captures(none) %3) local_unnamed_addr #0 {
  %5 = getelementptr i8, ptr %0, i64 24
  %.val65 = load i32, ptr %5, align 8, !tbaa !43
  %6 = tail call ptr @Gia_ManStart(i32 noundef %.val65) #29
  %7 = load ptr, ptr %0, align 8, !tbaa !44
  %.not.i = icmp eq ptr %7, null
  br i1 %.not.i, label %Abc_UtilStrsav.exit, label %8

8:                                                ; preds = %4
  %9 = tail call i64 @strlen(ptr noundef nonnull readonly dereferenceable(1) %7) #31
  %10 = add i64 %9, 1
  %11 = tail call noalias ptr @malloc(i64 noundef %10) #28
  %12 = tail call ptr @strcpy(ptr noundef nonnull dereferenceable(1) %11, ptr noundef nonnull readonly dereferenceable(1) %7) #29
  br label %Abc_UtilStrsav.exit

Abc_UtilStrsav.exit:                              ; preds = %4, %8
  %13 = phi ptr [ %11, %8 ], [ null, %4 ]
  store ptr %13, ptr %6, align 8, !tbaa !44
  tail call void @Gia_ManHashAlloc(ptr noundef nonnull %6) #29
  %14 = getelementptr i8, ptr %0, i64 32
  %.val66 = load ptr, ptr %14, align 8, !tbaa !35
  %15 = getelementptr inbounds nuw i8, ptr %.val66, i64 8
  store i32 0, ptr %15, align 4, !tbaa !37
  %16 = getelementptr i8, ptr %0, i64 16
  %17 = getelementptr i8, ptr %0, i64 64
  %.val6170 = load i32, ptr %16, align 8, !tbaa !16
  %.val6271 = load ptr, ptr %17, align 8, !tbaa !36
  %18 = getelementptr i8, ptr %.val6271, i64 4
  %.val62.val72 = load i32, ptr %18, align 4, !tbaa !11
  %19 = icmp sgt i32 %.val62.val72, %.val6170
  br i1 %19, label %.lr.ph, label %.critedge

.lr.ph:                                           ; preds = %Abc_UtilStrsav.exit
  %20 = getelementptr i8, ptr %2, i64 8
  %21 = getelementptr i8, ptr %3, i64 8
  %22 = sext i32 %1 to i64
  br label %23

23:                                               ; preds = %.lr.ph, %41
  %.val6292 = phi ptr [ %.val6271, %.lr.ph ], [ %.val62, %41 ]
  %.val6190 = phi i32 [ %.val6170, %.lr.ph ], [ %.val61, %41 ]
  %indvars.iv = phi i64 [ 0, %.lr.ph ], [ %indvars.iv.next, %41 ]
  %.val63 = load ptr, ptr %14, align 8, !tbaa !35
  %24 = getelementptr i8, ptr %.val6292, i64 8
  %.val64.val = load ptr, ptr %24, align 8, !tbaa !10
  %25 = getelementptr inbounds nuw i32, ptr %.val64.val, i64 %indvars.iv
  %26 = load i32, ptr %25, align 4, !tbaa !12
  %27 = sext i32 %26 to i64
  %28 = getelementptr inbounds %struct.Gia_Obj_t_, ptr %.val63, i64 %27
  %.not = icmp eq ptr %.val63, null
  br i1 %.not, label %.critedge, label %29

29:                                               ; preds = %23
  %30 = icmp slt i64 %indvars.iv, %22
  br i1 %30, label %31, label %36

31:                                               ; preds = %29
  %32 = tail call fastcc i32 @Gia_ManAppendCi(ptr noundef nonnull %6)
  %33 = getelementptr inbounds nuw i8, ptr %28, i64 8
  store i32 %32, ptr %33, align 4, !tbaa !37
  %.val57 = load ptr, ptr %21, align 8, !tbaa !10
  %34 = getelementptr inbounds nuw i32, ptr %.val57, i64 %indvars.iv
  %35 = load i32, ptr %34, align 4, !tbaa !12
  %.not54 = icmp eq i32 %35, -1
  %spec.store.select = select i1 %.not54, i32 %32, i32 %35
  store i32 %spec.store.select, ptr %33, align 4
  %.val61.pre = load i32, ptr %16, align 8, !tbaa !16
  %.val62.pre = load ptr, ptr %17, align 8, !tbaa !36
  br label %41

36:                                               ; preds = %29
  %37 = sub nsw i64 %indvars.iv, %22
  %.val55 = load ptr, ptr %20, align 8, !tbaa !10
  %38 = getelementptr inbounds i32, ptr %.val55, i64 %37
  %39 = load i32, ptr %38, align 4, !tbaa !12
  %40 = getelementptr inbounds nuw i8, ptr %28, i64 8
  store i32 %39, ptr %40, align 4, !tbaa !37
  br label %41

41:                                               ; preds = %31, %36
  %.val62 = phi ptr [ %.val62.pre, %31 ], [ %.val6292, %36 ]
  %.val61 = phi i32 [ %.val61.pre, %31 ], [ %.val6190, %36 ]
  %indvars.iv.next = add nuw nsw i64 %indvars.iv, 1
  %42 = getelementptr i8, ptr %.val62, i64 4
  %.val62.val = load i32, ptr %42, align 4, !tbaa !11
  %43 = sub nsw i32 %.val62.val, %.val61
  %44 = sext i32 %43 to i64
  %45 = icmp slt i64 %indvars.iv.next, %44
  br i1 %45, label %23, label %.critedge, !llvm.loop !118

.critedge:                                        ; preds = %23, %41, %Abc_UtilStrsav.exit
  %46 = load i32, ptr %5, align 8, !tbaa !43
  %47 = icmp sgt i32 %46, 0
  br i1 %47, label %.lr.ph77, label %.critedge2

.lr.ph77:                                         ; preds = %.critedge, %73
  %48 = phi i32 [ %74, %73 ], [ %46, %.critedge ]
  %indvars.iv84 = phi i64 [ %indvars.iv.next85, %73 ], [ 0, %.critedge ]
  %.val58 = load ptr, ptr %14, align 8, !tbaa !35
  %49 = getelementptr inbounds nuw %struct.Gia_Obj_t_, ptr %.val58, i64 %indvars.iv84
  %.not51 = icmp eq ptr %.val58, null
  br i1 %.not51, label %.critedge2, label %50

50:                                               ; preds = %.lr.ph77
  %.val67 = load i64, ptr %49, align 4
  %51 = and i64 %.val67, 2147483648
  %.not.i68 = icmp ne i64 %51, 0
  %52 = and i64 %.val67, 536870911
  %53 = icmp eq i64 %52, 536870911
  %narrow.i.not = or i1 %.not.i68, %53
  br i1 %narrow.i.not, label %73, label %54

54:                                               ; preds = %50
  %55 = sub nsw i64 0, %52
  %56 = getelementptr inbounds %struct.Gia_Obj_t_, ptr %49, i64 %55, i32 1
  %57 = load i32, ptr %56, align 4, !tbaa !37
  %58 = trunc i64 %.val67 to i32
  %59 = lshr i32 %58, 29
  %60 = and i32 %59, 1
  %61 = xor i32 %57, %60
  %62 = lshr i64 %.val67, 32
  %63 = and i64 %62, 536870911
  %64 = sub nsw i64 0, %63
  %65 = getelementptr inbounds %struct.Gia_Obj_t_, ptr %49, i64 %64, i32 1
  %66 = load i32, ptr %65, align 4, !tbaa !37
  %67 = lshr i64 %.val67, 61
  %68 = trunc nuw nsw i64 %67 to i32
  %69 = and i32 %68, 1
  %70 = xor i32 %66, %69
  %71 = tail call i32 @Gia_ManHashAnd(ptr noundef nonnull %6, i32 noundef %61, i32 noundef %70) #29
  %72 = getelementptr inbounds nuw i8, ptr %49, i64 8
  store i32 %71, ptr %72, align 4, !tbaa !37
  %.pre = load i32, ptr %5, align 8, !tbaa !43
  br label %73

73:                                               ; preds = %54, %50
  %74 = phi i32 [ %.pre, %54 ], [ %48, %50 ]
  %indvars.iv.next85 = add nuw nsw i64 %indvars.iv84, 1
  %75 = sext i32 %74 to i64
  %76 = icmp slt i64 %indvars.iv.next85, %75
  br i1 %76, label %.lr.ph77, label %.critedge2, !llvm.loop !119

.critedge2:                                       ; preds = %.lr.ph77, %73, %.critedge
  %77 = getelementptr inbounds nuw i8, ptr %0, i64 72
  %78 = load ptr, ptr %77, align 8, !tbaa !40
  %79 = getelementptr i8, ptr %78, i64 4
  %.val79 = load i32, ptr %79, align 4, !tbaa !11
  %80 = icmp sgt i32 %.val79, 0
  br i1 %80, label %.lr.ph81, label %.critedge4

.lr.ph81:                                         ; preds = %.critedge2, %82
  %indvars.iv87 = phi i64 [ %indvars.iv.next88, %82 ], [ 0, %.critedge2 ]
  %81 = phi ptr [ %99, %82 ], [ %78, %.critedge2 ]
  %.val59 = load ptr, ptr %14, align 8, !tbaa !35
  %.not52 = icmp eq ptr %.val59, null
  br i1 %.not52, label %.critedge4, label %82

82:                                               ; preds = %.lr.ph81
  %83 = getelementptr i8, ptr %81, i64 8
  %.val60.val = load ptr, ptr %83, align 8, !tbaa !10
  %84 = getelementptr inbounds nuw i32, ptr %.val60.val, i64 %indvars.iv87
  %85 = load i32, ptr %84, align 4, !tbaa !12
  %86 = sext i32 %85 to i64
  %87 = getelementptr inbounds %struct.Gia_Obj_t_, ptr %.val59, i64 %86
  %88 = load i64, ptr %87, align 4
  %89 = and i64 %88, 536870911
  %90 = sub nsw i64 0, %89
  %91 = getelementptr inbounds %struct.Gia_Obj_t_, ptr %87, i64 %90, i32 1
  %92 = load i32, ptr %91, align 4, !tbaa !37
  %93 = trunc i64 %88 to i32
  %94 = lshr i32 %93, 29
  %95 = and i32 %94, 1
  %96 = xor i32 %95, %92
  %97 = tail call fastcc i32 @Gia_ManAppendCo(ptr noundef nonnull %6, i32 noundef %96)
  %98 = getelementptr inbounds nuw i8, ptr %87, i64 8
  store i32 %97, ptr %98, align 4, !tbaa !37
  %indvars.iv.next88 = add nuw nsw i64 %indvars.iv87, 1
  %99 = load ptr, ptr %77, align 8, !tbaa !40
  %100 = getelementptr i8, ptr %99, i64 4
  %.val = load i32, ptr %100, align 4, !tbaa !11
  %101 = sext i32 %.val to i64
  %102 = icmp slt i64 %indvars.iv.next88, %101
  br i1 %102, label %.lr.ph81, label %.critedge4, !llvm.loop !120

.critedge4:                                       ; preds = %.lr.ph81, %82, %.critedge2
  %103 = tail call ptr @Gia_ManCleanup(ptr noundef nonnull %6) #29
  tail call void @Gia_ManStop(ptr noundef nonnull %6) #29
  ret ptr %103
}